; Function Attrs: mustprogress nounwind uwtable
define hidden noundef ptr @_ZNK13ObjArrayKlass6moduleEv(ptr nocapture noundef nonnull readonly align 8 dereferenceable(232) %0) unnamed_addr #0 align 2 {
  %2 = getelementptr inbounds i8, ptr %0, i64 224
  %3 = load ptr, ptr %2, align 8
  %4 = load ptr, ptr %3, align 8
  %5 = getelementptr inbounds i8, ptr %4, i64 136
  %6 = load ptr, ptr %5, align 8
  %7 = tail call noundef ptr %6(ptr noundef nonnull align 8 dereferenceable(196) %3) #12
  ret ptr %7
}